target datalayout = "e-m:e-p270:32:32-p271:32:32-p272:64:64-i64:64-i128:128-f80:128-n8:16:32:64-S128"
target triple = "x86_64-pc-linux-gnu"

%struct.UDataInfo = type { i16, i16, i8, i8, i8, i8, [4 x i8], [4 x i8], [4 x i8] }

@_ZL11dataVersion = internal global [4 x i8] zeroinitializer, align 1

; Function Attrs: mustprogress nounwind uwtable
define internal noundef signext i8 @_ZL17isSPrepAcceptablePvPKcS1_PK9UDataInfo(ptr noundef %0, ptr noundef %1, ptr noundef %2, ptr noundef %3) #5 {
  %5 = alloca i8, align 1
  %6 = alloca ptr, align 8
  %7 = alloca ptr, align 8
  %8 = alloca ptr, align 8
  %9 = alloca ptr, align 8
  store ptr %0, ptr %6, align 8, !tbaa !8
  store ptr %1, ptr %7, align 8, !tbaa !3
  store ptr %2, ptr %8, align 8, !tbaa !3
  store ptr %3, ptr %9, align 8, !tbaa !8
  %10 = load ptr, ptr %9, align 8, !tbaa !8
  %11 = getelementptr inbounds nuw %struct.UDataInfo, ptr %10, i32 0, i32 0
  %12 = load i16, ptr %11, align 2, !tbaa !119
  %13 = zext i16 %12 to i32
  %14 = icmp sge i32 %13, 20
  br i1 %14, label %15, label %82

15:                                               ; preds = %4
  %16 = load ptr, ptr %9, align 8, !tbaa !8
  %17 = getelementptr inbounds nuw %struct.UDataInfo, ptr %16, i32 0, i32 2
  %18 = load i8, ptr %17, align 2, !tbaa !121
  %19 = zext i8 %18 to i32
  %20 = icmp eq i32 %19, 0
  br i1 %20, label %21, label %82

21:                                               ; preds = %15
  %22 = load ptr, ptr %9, align 8, !tbaa !8
  %23 = getelementptr inbounds nuw %struct.UDataInfo, ptr %22, i32 0, i32 3
  %24 = load i8, ptr %23, align 1, !tbaa !122
  %25 = zext i8 %24 to i32
  %26 = icmp eq i32 %25, 0
  br i1 %26, label %27, label %82

27:                                               ; preds = %21
  %28 = load ptr, ptr %9, align 8, !tbaa !8
  %29 = getelementptr inbounds nuw %struct.UDataInfo, ptr %28, i32 0, i32 6
  %30 = getelementptr inbounds [4 x i8], ptr %29, i64 0, i64 0
  %31 = load i8, ptr %30, align 2, !tbaa !43
  %32 = zext i8 %31 to i32
  %33 = icmp eq i32 %32, 83
  br i1 %33, label %34, label %82

34:                                               ; preds = %27
  %35 = load ptr, ptr %9, align 8, !tbaa !8
  %36 = getelementptr inbounds nuw %struct.UDataInfo, ptr %35, i32 0, i32 6
  %37 = getelementptr inbounds [4 x i8], ptr %36, i64 0, i64 1
  %38 = load i8, ptr %37, align 1, !tbaa !43
  %39 = zext i8 %38 to i32
  %40 = icmp eq i32 %39, 80
  br i1 %40, label %41, label %82

41:                                               ; preds = %34
  %42 = load ptr, ptr %9, align 8, !tbaa !8
  %43 = getelementptr inbounds nuw %struct.UDataInfo, ptr %42, i32 0, i32 6
  %44 = getelementptr inbounds [4 x i8], ptr %43, i64 0, i64 2
  %45 = load i8, ptr %44, align 2, !tbaa !43
  %46 = zext i8 %45 to i32
  %47 = icmp eq i32 %46, 82
  br i1 %47, label %48, label %82

48:                                               ; preds = %41
  %49 = load ptr, ptr %9, align 8, !tbaa !8
  %50 = getelementptr inbounds nuw %struct.UDataInfo, ptr %49, i32 0, i32 6
  %51 = getelementptr inbounds [4 x i8], ptr %50, i64 0, i64 3
  %52 = load i8, ptr %51, align 1, !tbaa !43
  %53 = zext i8 %52 to i32
  %54 = icmp eq i32 %53, 80
  br i1 %54, label %55, label %82

55:                                               ; preds = %48
  %56 = load ptr, ptr %9, align 8, !tbaa !8
  %57 = getelementptr inbounds nuw %struct.UDataInfo, ptr %56, i32 0, i32 7
  %58 = getelementptr inbounds [4 x i8], ptr %57, i64 0, i64 0
  %59 = load i8, ptr %58, align 2, !tbaa !43
  %60 = zext i8 %59 to i32
  %61 = icmp eq i32 %60, 3
  br i1 %61, label %62, label %82

62:                                               ; preds = %55
  %63 = load ptr, ptr %9, align 8, !tbaa !8
  %64 = getelementptr inbounds nuw %struct.UDataInfo, ptr %63, i32 0, i32 7
  %65 = getelementptr inbounds [4 x i8], ptr %64, i64 0, i64 2
  %66 = load i8, ptr %65, align 2, !tbaa !43
  %67 = zext i8 %66 to i32
  %68 = icmp eq i32 %67, 5
  br i1 %68, label %69, label %82

69:                                               ; preds = %62
  %70 = load ptr, ptr %9, align 8, !tbaa !8
  %71 = getelementptr inbounds nuw %struct.UDataInfo, ptr %70, i32 0, i32 7
  %72 = getelementptr inbounds [4 x i8], ptr %71, i64 0, i64 3
  %73 = load i8, ptr %72, align 1, !tbaa !43
  %74 = zext i8 %73 to i32
  %75 = icmp eq i32 %74, 2
  br i1 %75, label %76, label %82

76:                                               ; preds = %69
  br label %77

77:                                               ; preds = %76
  %78 = load ptr, ptr %9, align 8, !tbaa !8
  %79 = getelementptr inbounds nuw %struct.UDataInfo, ptr %78, i32 0, i32 8
  %80 = getelementptr inbounds [4 x i8], ptr %79, i64 0, i64 0
  call void @llvm.memcpy.p0.p0.i64(ptr align 1 @_ZL11dataVersion, ptr align 2 %80, i64 4, i1 false)
  br label %81

81:                                               ; preds = %77
  store i8 1, ptr %5, align 1
  br label %83

82:                                               ; preds = %69, %62, %55, %48, %41, %34, %27, %21, %15, %4
  store i8 0, ptr %5, align 1
  br label %83

83:                                               ; preds = %82, %81
  %84 = load i8, ptr %5, align 1
  ret i8 %84
}