; Function Attrs: mustprogress nofree norecurse nosync nounwind willreturn memory(write, argmem: read, inaccessiblemem: none) uwtable
define internal noundef signext range(i8 0, 2) i8 @_ZL17isSPrepAcceptablePvPKcS1_PK9UDataInfo(ptr readnone captures(none) %0, ptr readnone captures(none) %1, ptr readnone captures(none) %2, ptr noundef readonly captures(none) %3) #12 {
  %5 = load i16, ptr %3, align 2, !tbaa !65
  %6 = icmp ugt i16 %5, 19
  br i1 %6, label %7, label %46

7:                                                ; preds = %4
  %8 = getelementptr inbounds nuw i8, ptr %3, i64 4
  %9 = load i8, ptr %8, align 2, !tbaa !67
  %10 = icmp eq i8 %9, 0
  br i1 %10, label %11, label %46

11:                                               ; preds = %7
  %12 = getelementptr inbounds nuw i8, ptr %3, i64 5
  %13 = load i8, ptr %12, align 1, !tbaa !68
  %14 = icmp eq i8 %13, 0
  br i1 %14, label %15, label %46

15:                                               ; preds = %11
  %16 = getelementptr inbounds nuw i8, ptr %3, i64 8
  %17 = load i8, ptr %16, align 2, !tbaa !29
  %18 = icmp eq i8 %17, 83
  br i1 %18, label %19, label %46

19:                                               ; preds = %15
  %20 = getelementptr inbounds nuw i8, ptr %3, i64 9
  %21 = load i8, ptr %20, align 1, !tbaa !29
  %22 = icmp eq i8 %21, 80
  br i1 %22, label %23, label %46

23:                                               ; preds = %19
  %24 = getelementptr inbounds nuw i8, ptr %3, i64 10
  %25 = load i8, ptr %24, align 2, !tbaa !29
  %26 = icmp eq i8 %25, 82
  br i1 %26, label %27, label %46

27:                                               ; preds = %23
  %28 = getelementptr inbounds nuw i8, ptr %3, i64 11
  %29 = load i8, ptr %28, align 1, !tbaa !29
  %30 = icmp eq i8 %29, 80
  br i1 %30, label %31, label %46

31:                                               ; preds = %27
  %32 = getelementptr inbounds nuw i8, ptr %3, i64 12
  %33 = load i8, ptr %32, align 2, !tbaa !29
  %34 = icmp eq i8 %33, 3
  br i1 %34, label %35, label %46

35:                                               ; preds = %31
  %36 = getelementptr inbounds nuw i8, ptr %3, i64 14
  %37 = load i8, ptr %36, align 2, !tbaa !29
  %38 = icmp eq i8 %37, 5
  br i1 %38, label %39, label %46

39:                                               ; preds = %35
  %40 = getelementptr inbounds nuw i8, ptr %3, i64 15
  %41 = load i8, ptr %40, align 1, !tbaa !29
  %42 = icmp eq i8 %41, 2
  br i1 %42, label %43, label %46

43:                                               ; preds = %39
  %44 = getelementptr inbounds nuw i8, ptr %3, i64 16
  %45 = load i32, ptr %44, align 2
  store i32 %45, ptr @_ZL11dataVersion, align 4
  br label %46

46:                                               ; preds = %4, %7, %11, %15, %19, %23, %27, %31, %35, %39, %43
  %.0 = phi i8 [ 1, %43 ], [ 0, %39 ], [ 0, %35 ], [ 0, %31 ], [ 0, %27 ], [ 0, %23 ], [ 0, %19 ], [ 0, %15 ], [ 0, %11 ], [ 0, %7 ], [ 0, %4 ]
  ret i8 %.0
}